target datalayout = "e-m:e-p270:32:32-p271:32:32-p272:64:64-i64:64-i128:128-f80:128-n8:16:32:64-S128"
target triple = "x86_64-pc-linux-gnu"

%struct._object = type { %union.anon, ptr }
%union.anon = type { i64 }
%struct.PyVarObject = type { %struct._object, i64 }
%struct._typeobject = type { %struct.PyVarObject, ptr, i64, i64, ptr, i64, ptr, ptr, ptr, ptr, ptr, ptr, ptr, ptr, ptr, ptr, ptr, ptr, ptr, i64, ptr, ptr, ptr, ptr, i64, ptr, ptr, ptr, ptr, ptr, ptr, ptr, ptr, ptr, i64, ptr, ptr, ptr, ptr, ptr, ptr, ptr, ptr, ptr, ptr, ptr, i32, ptr, ptr, i8, i16 }
%struct.Py_buffer = type { ptr, ptr, i64, i64, i32, i32, ptr, ptr, ptr, ptr, ptr }

@.str.33 = private unnamed_addr constant [13 x i8] c"ascii_decode\00", align 1
@_Py_NoneStruct = external global %struct._object, align 8
@PyExc_ValueError = external global ptr, align 8
@.str.44 = private unnamed_addr constant [24 x i8] c"embedded null character\00", align 1
@.str.52 = private unnamed_addr constant [11 x i8] c"argument 2\00", align 1
@.str.53 = private unnamed_addr constant [12 x i8] c"str or None\00", align 1
@.str.55 = private unnamed_addr constant [3 x i8] c"Nn\00", align 1

; Function Attrs: nounwind uwtable
define internal ptr @codec_tuple(ptr noundef %0, i64 noundef %1) #0 {
  %3 = alloca ptr, align 8
  %4 = alloca ptr, align 8
  %5 = alloca i64, align 8
  store ptr %0, ptr %4, align 8, !tbaa !4
  store i64 %1, ptr %5, align 8, !tbaa !11
  %6 = load ptr, ptr %4, align 8, !tbaa !4
  %7 = icmp eq ptr %6, null
  br i1 %7, label %8, label %9

8:                                                ; preds = %2
  store ptr null, ptr %3, align 8
  br label %13

9:                                                ; preds = %2
  %10 = load ptr, ptr %4, align 8, !tbaa !4
  %11 = load i64, ptr %5, align 8, !tbaa !11
  %12 = call ptr (ptr, ...) @Py_BuildValue(ptr noundef @.str.55, ptr noundef %10, i64 noundef %11)
  store ptr %12, ptr %3, align 8
  br label %13

13:                                               ; preds = %9, %8
  %14 = load ptr, ptr %3, align 8
  ret ptr %14
}

; Function Attrs: nounwind uwtable
define internal ptr @_codecs_ascii_decode_impl(ptr noundef %0, ptr noundef %1, ptr noundef %2) #0 {
  %4 = alloca ptr, align 8
  %5 = alloca ptr, align 8
  %6 = alloca ptr, align 8
  %7 = alloca ptr, align 8
  store ptr %0, ptr %4, align 8, !tbaa !4
  store ptr %1, ptr %5, align 8, !tbaa !31
  store ptr %2, ptr %6, align 8, !tbaa !9
  call void @llvm.lifetime.start.p0(i64 8, ptr %7) #6
  %8 = load ptr, ptr %5, align 8, !tbaa !31
  %9 = getelementptr inbounds nuw %struct.Py_buffer, ptr %8, i32 0, i32 0
  %10 = load ptr, ptr %9, align 8, !tbaa !36
  %11 = load ptr, ptr %5, align 8, !tbaa !31
  %12 = getelementptr inbounds nuw %struct.Py_buffer, ptr %11, i32 0, i32 2
  %13 = load i64, ptr %12, align 8, !tbaa !37
  %14 = load ptr, ptr %6, align 8, !tbaa !9
  %15 = call ptr @PyUnicode_DecodeASCII(ptr noundef %10, i64 noundef %13, ptr noundef %14)
  store ptr %15, ptr %7, align 8, !tbaa !4
  %16 = load ptr, ptr %7, align 8, !tbaa !4
  %17 = load ptr, ptr %5, align 8, !tbaa !31
  %18 = getelementptr inbounds nuw %struct.Py_buffer, ptr %17, i32 0, i32 2
  %19 = load i64, ptr %18, align 8, !tbaa !37
  %20 = call ptr @codec_tuple(ptr noundef %16, i64 noundef %19)
  call void @llvm.lifetime.end.p0(i64 8, ptr %7) #6
  ret ptr %20
}

; Function Attrs: inlinehint nounwind uwtable
define internal i32 @PyType_HasFeature(ptr noundef %0, i64 noundef %1) #3 {
  %3 = alloca ptr, align 8
  %4 = alloca i64, align 8
  %5 = alloca i64, align 8
  store ptr %0, ptr %3, align 8, !tbaa !20
  store i64 %1, ptr %4, align 8, !tbaa !11
  call void @llvm.lifetime.start.p0(i64 8, ptr %5) #6
  %6 = load ptr, ptr %3, align 8, !tbaa !20
  %7 = getelementptr inbounds nuw %struct._typeobject, ptr %6, i32 0, i32 19
  %8 = load i64, ptr %7, align 8, !tbaa !22
  store i64 %8, ptr %5, align 8, !tbaa !11
  %9 = load i64, ptr %5, align 8, !tbaa !11
  %10 = load i64, ptr %4, align 8, !tbaa !11
  %11 = and i64 %9, %10
  %12 = icmp ne i64 %11, 0
  %13 = zext i1 %12 to i32
  call void @llvm.lifetime.end.p0(i64 8, ptr %5) #6
  ret i32 %13
}

; Function Attrs: inlinehint nounwind uwtable
define internal ptr @_Py_TYPE(ptr noundef %0) #3 {
  %2 = alloca ptr, align 8
  store ptr %0, ptr %2, align 8, !tbaa !4
  %3 = load ptr, ptr %2, align 8, !tbaa !4
  %4 = getelementptr inbounds nuw %struct._object, ptr %3, i32 0, i32 1
  %5 = load ptr, ptr %4, align 8, !tbaa !30
  ret ptr %5
}

; Function Attrs: nounwind uwtable
define internal ptr @_codecs_ascii_decode(ptr noundef %0, ptr noundef %1, i64 noundef %2) #0 {
  %4 = alloca ptr, align 8
  %5 = alloca ptr, align 8
  %6 = alloca ptr, align 8
  %7 = alloca i64, align 8
  %8 = alloca ptr, align 8
  %9 = alloca %struct.Py_buffer, align 8
  %10 = alloca ptr, align 8
  %11 = alloca i64, align 8
  %12 = alloca i32, align 4
  store ptr %0, ptr %5, align 8, !tbaa !4
  store ptr %1, ptr %6, align 8, !tbaa !13
  store i64 %2, ptr %7, align 8, !tbaa !11
  call void @llvm.lifetime.start.p0(i64 8, ptr %8) #6
  store ptr null, ptr %8, align 8, !tbaa !4
  call void @llvm.lifetime.start.p0(i64 80, ptr %9) #6
  call void @llvm.memset.p0.i64(ptr align 8 %9, i8 0, i64 80, i1 false)
  call void @llvm.lifetime.start.p0(i64 8, ptr %10) #6
  store ptr null, ptr %10, align 8, !tbaa !9
  %13 = load i64, ptr %7, align 8, !tbaa !11
  %14 = icmp sle i64 1, %13
  br i1 %14, label %15, label %18

15:                                               ; preds = %3
  %16 = load i64, ptr %7, align 8, !tbaa !11
  %17 = icmp sle i64 %16, 2
  br i1 %17, label %23, label %18

18:                                               ; preds = %15, %3
  %19 = load i64, ptr %7, align 8, !tbaa !11
  %20 = call i32 @_PyArg_CheckPositional(ptr noundef @.str.33, i64 noundef %19, i64 noundef 1, i64 noundef 2)
  %21 = icmp ne i32 %20, 0
  br i1 %21, label %23, label %22

22:                                               ; preds = %18
  br label %76

23:                                               ; preds = %18, %15
  %24 = load ptr, ptr %6, align 8, !tbaa !13
  %25 = getelementptr ptr, ptr %24, i64 0
  %26 = load ptr, ptr %25, align 8, !tbaa !4
  %27 = call i32 @PyObject_GetBuffer(ptr noundef %26, ptr noundef %9, i32 noundef 0)
  %28 = icmp ne i32 %27, 0
  br i1 %28, label %29, label %30

29:                                               ; preds = %23
  br label %76

30:                                               ; preds = %23
  %31 = load i64, ptr %7, align 8, !tbaa !11
  %32 = icmp slt i64 %31, 2
  br i1 %32, label %33, label %34

33:                                               ; preds = %30
  br label %72

34:                                               ; preds = %30
  %35 = load ptr, ptr %6, align 8, !tbaa !13
  %36 = getelementptr ptr, ptr %35, i64 1
  %37 = load ptr, ptr %36, align 8, !tbaa !4
  %38 = icmp eq ptr %37, @_Py_NoneStruct
  br i1 %38, label %39, label %40

39:                                               ; preds = %34
  store ptr null, ptr %10, align 8, !tbaa !9
  br label %71

40:                                               ; preds = %34
  %41 = load ptr, ptr %6, align 8, !tbaa !13
  %42 = getelementptr ptr, ptr %41, i64 1
  %43 = load ptr, ptr %42, align 8, !tbaa !4
  %44 = call ptr @_Py_TYPE(ptr noundef %43)
  %45 = call i32 @PyType_HasFeature(ptr noundef %44, i64 noundef 268435456)
  %46 = icmp ne i32 %45, 0
  br i1 %46, label %47, label %66

47:                                               ; preds = %40
  call void @llvm.lifetime.start.p0(i64 8, ptr %11) #6
  %48 = load ptr, ptr %6, align 8, !tbaa !13
  %49 = getelementptr ptr, ptr %48, i64 1
  %50 = load ptr, ptr %49, align 8, !tbaa !4
  %51 = call ptr @PyUnicode_AsUTF8AndSize(ptr noundef %50, ptr noundef %11)
  store ptr %51, ptr %10, align 8, !tbaa !9
  %52 = load ptr, ptr %10, align 8, !tbaa !9
  %53 = icmp eq ptr %52, null
  br i1 %53, label %54, label %55

54:                                               ; preds = %47
  store i32 2, ptr %12, align 4
  br label %63

55:                                               ; preds = %47
  %56 = load ptr, ptr %10, align 8, !tbaa !9
  %57 = call i64 @strlen(ptr noundef %56) #7
  %58 = load i64, ptr %11, align 8, !tbaa !11
  %59 = icmp ne i64 %57, %58
  br i1 %59, label %60, label %62

60:                                               ; preds = %55
  %61 = load ptr, ptr @PyExc_ValueError, align 8, !tbaa !4
  call void @PyErr_SetString(ptr noundef %61, ptr noundef @.str.44)
  store i32 2, ptr %12, align 4
  br label %63

62:                                               ; preds = %55
  store i32 0, ptr %12, align 4
  br label %63

63:                                               ; preds = %60, %54, %62
  call void @llvm.lifetime.end.p0(i64 8, ptr %11) #6
  %64 = load i32, ptr %12, align 4
  switch i32 %64, label %83 [
    i32 0, label %65
    i32 2, label %76
  ]

65:                                               ; preds = %63
  br label %70

66:                                               ; preds = %40
  %67 = load ptr, ptr %6, align 8, !tbaa !13
  %68 = getelementptr ptr, ptr %67, i64 1
  %69 = load ptr, ptr %68, align 8, !tbaa !4
  call void @_PyArg_BadArgument(ptr noundef @.str.33, ptr noundef @.str.52, ptr noundef @.str.53, ptr noundef %69)
  br label %76

70:                                               ; preds = %65
  br label %71

71:                                               ; preds = %70, %39
  br label %72

72:                                               ; preds = %71, %33
  %73 = load ptr, ptr %5, align 8, !tbaa !4
  %74 = load ptr, ptr %10, align 8, !tbaa !9
  %75 = call ptr @_codecs_ascii_decode_impl(ptr noundef %73, ptr noundef %9, ptr noundef %74)
  store ptr %75, ptr %8, align 8, !tbaa !4
  br label %76

76:                                               ; preds = %72, %63, %66, %29, %22
  %77 = getelementptr inbounds nuw %struct.Py_buffer, ptr %9, i32 0, i32 1
  %78 = load ptr, ptr %77, align 8, !tbaa !15
  %79 = icmp ne ptr %78, null
  br i1 %79, label %80, label %81

80:                                               ; preds = %76
  call void @PyBuffer_Release(ptr noundef %9)
  br label %81

81:                                               ; preds = %80, %76
  %82 = load ptr, ptr %8, align 8, !tbaa !4
  store ptr %82, ptr %4, align 8
  store i32 1, ptr %12, align 4
  br label %83

83:                                               ; preds = %81, %63
  call void @llvm.lifetime.end.p0(i64 8, ptr %10) #6
  call void @llvm.lifetime.end.p0(i64 80, ptr %9) #6
  call void @llvm.lifetime.end.p0(i64 8, ptr %8) #6
  %84 = load ptr, ptr %4, align 8
  ret ptr %84
}